; Function Attrs: mustprogress nounwind uwtable
define hidden void @_ZN6hermes2vm15StorageProvider12mmapProviderEv(ptr noalias nocapture writeonly sret(%"class.std::unique_ptr") align 8 %agg.result) local_unnamed_addr #3 align 2 {
entry:
  %call = tail call noalias noundef nonnull dereferenceable(32) ptr @_Znwm(i64 noundef 32) #17
  %numSucceededAllocs_.i.i = getelementptr inbounds i8, ptr %call, i64 8
  tail call void @llvm.memset.p0.i64(ptr noundef nonnull align 8 dereferenceable(24) %numSucceededAllocs_.i.i, i8 0, i64 24, i1 false)
  store ptr getelementptr inbounds ({ [6 x ptr] }, ptr @_ZTVN6hermes2vm12_GLOBAL__N_125VMAllocateStorageProviderE, i64 0, i32 0, i64 2), ptr %call, align 8
  store ptr %call, ptr %agg.result, align 8
  ret void
}